target datalayout = "e-m:e-p270:32:32-p271:32:32-p272:64:64-i64:64-i128:128-f80:128-n8:16:32:64-S128"
target triple = "x86_64-pc-linux-gnu"

%"struct.OpenColorIO_v2_5dev::GradingTone" = type { %"struct.OpenColorIO_v2_5dev::GradingRGBMSW", %"struct.OpenColorIO_v2_5dev::GradingRGBMSW", %"struct.OpenColorIO_v2_5dev::GradingRGBMSW", %"struct.OpenColorIO_v2_5dev::GradingRGBMSW", %"struct.OpenColorIO_v2_5dev::GradingRGBMSW", double }
%"struct.OpenColorIO_v2_5dev::GradingRGBMSW" = type { double, double, double, double, double, double }
%"class.std::ios_base" = type { ptr, i64, i64, i32, i32, i32, ptr, %"struct.std::ios_base::_Words", [8 x %"struct.std::ios_base::_Words"], i32, ptr, %"class.std::locale" }
%"struct.std::ios_base::_Words" = type { ptr, i64 }
%"class.std::locale" = type { ptr }

@.str.6 = private unnamed_addr constant [2 x i8] c">\00", align 1
@.str.13 = private unnamed_addr constant [9 x i8] c"<blacks=\00", align 1
@.str.14 = private unnamed_addr constant [10 x i8] c" shadows=\00", align 1
@.str.15 = private unnamed_addr constant [11 x i8] c" midtones=\00", align 1
@.str.16 = private unnamed_addr constant [13 x i8] c" highlights=\00", align 1
@.str.17 = private unnamed_addr constant [9 x i8] c" whites=\00", align 1
@.str.18 = private unnamed_addr constant [13 x i8] c" s_contrast=\00", align 1

; Function Attrs: inlinehint mustprogress nounwind uwtable
define linkonce_odr noundef i32 @_ZStorSt12_Ios_IostateS_(i32 noundef %0, i32 noundef %1) #12 comdat {
  %3 = alloca i32, align 4
  %4 = alloca i32, align 4
  store i32 %0, ptr %3, align 4, !tbaa !165
  store i32 %1, ptr %4, align 4, !tbaa !165
  %5 = load i32, ptr %3, align 4, !tbaa !165
  %6 = load i32, ptr %4, align 4, !tbaa !165
  %7 = or i32 %5, %6
  ret i32 %7
}

; Function Attrs: mustprogress nounwind uwtable
define available_externally noundef i32 @_ZNKSt9basic_iosIcSt11char_traitsIcEE7rdstateEv(ptr noundef nonnull align 8 dereferenceable(264) %0) #3 align 2 {
  %2 = alloca ptr, align 8
  store ptr %0, ptr %2, align 8, !tbaa !163
  %3 = load ptr, ptr %2, align 8
  %4 = getelementptr inbounds nuw %"class.std::ios_base", ptr %3, i32 0, i32 5
  %5 = load i32, ptr %4, align 8, !tbaa !167
  ret i32 %5
}

; Function Attrs: mustprogress nounwind uwtable
define linkonce_odr hidden noundef i64 @_ZNSt11char_traitsIcE6lengthEPKc(ptr noundef %0) #3 comdat align 2 {
  %2 = alloca ptr, align 8
  store ptr %0, ptr %2, align 8, !tbaa !33
  %3 = load ptr, ptr %2, align 8, !tbaa !33
  %4 = call i64 @strlen(ptr noundef %3) #21
  ret i64 %4
}

; Function Attrs: mustprogress uwtable
define available_externally void @_ZNSt9basic_iosIcSt11char_traitsIcEE8setstateESt12_Ios_Iostate(ptr noundef nonnull align 8 dereferenceable(264) %0, i32 noundef %1) #0 align 2 {
  %3 = alloca ptr, align 8
  %4 = alloca i32, align 4
  store ptr %0, ptr %3, align 8, !tbaa !163
  store i32 %1, ptr %4, align 4, !tbaa !165
  %5 = load ptr, ptr %3, align 8
  %6 = call noundef i32 @_ZNKSt9basic_iosIcSt11char_traitsIcEE7rdstateEv(ptr noundef nonnull align 8 dereferenceable(264) %5)
  %7 = load i32, ptr %4, align 4, !tbaa !165
  %8 = call noundef i32 @_ZStorSt12_Ios_IostateS_(i32 noundef %6, i32 noundef %7)
  call void @_ZNSt9basic_iosIcSt11char_traitsIcEE5clearESt12_Ios_Iostate(ptr noundef nonnull align 8 dereferenceable(264) %5, i32 noundef %8)
  ret void
}

; Function Attrs: mustprogress uwtable
define available_externally noundef nonnull align 8 dereferenceable(8) ptr @_ZNSolsEd(ptr noundef nonnull align 8 dereferenceable(8) %0, double noundef %1) #0 align 2 {
  %3 = alloca ptr, align 8
  %4 = alloca double, align 8
  store ptr %0, ptr %3, align 8, !tbaa !75
  store double %1, ptr %4, align 8, !tbaa !89
  %5 = load ptr, ptr %3, align 8
  %6 = load double, ptr %4, align 8, !tbaa !89
  %7 = call noundef nonnull align 8 dereferenceable(8) ptr @_ZNSo9_M_insertIdEERSoT_(ptr noundef nonnull align 8 dereferenceable(8) %5, double noundef %6)
  ret ptr %7
}

; Function Attrs: inlinehint mustprogress uwtable
define available_externally noundef nonnull align 8 dereferenceable(8) ptr @_ZStlsISt11char_traitsIcEERSt13basic_ostreamIcT_ES5_PKc(ptr noundef nonnull align 8 dereferenceable(8) %0, ptr noundef %1) #10 {
  %3 = alloca ptr, align 8
  %4 = alloca ptr, align 8
  store ptr %0, ptr %3, align 8, !tbaa !75
  store ptr %1, ptr %4, align 8, !tbaa !33
  %5 = load ptr, ptr %4, align 8, !tbaa !33
  %6 = icmp ne ptr %5, null
  br i1 %6, label %13, label %7

7:                                                ; preds = %2
  %8 = load ptr, ptr %3, align 8, !tbaa !75
  %9 = load ptr, ptr %8, align 8, !tbaa !10
  %10 = getelementptr i8, ptr %9, i64 -24
  %11 = load i64, ptr %10, align 8
  %12 = getelementptr inbounds i8, ptr %8, i64 %11
  call void @_ZNSt9basic_iosIcSt11char_traitsIcEE8setstateESt12_Ios_Iostate(ptr noundef nonnull align 8 dereferenceable(264) %12, i32 noundef 1)
  br label %19

13:                                               ; preds = %2
  %14 = load ptr, ptr %3, align 8, !tbaa !75
  %15 = load ptr, ptr %4, align 8, !tbaa !33
  %16 = load ptr, ptr %4, align 8, !tbaa !33
  %17 = call noundef i64 @_ZNSt11char_traitsIcE6lengthEPKc(ptr noundef %16)
  %18 = call noundef nonnull align 8 dereferenceable(8) ptr @_ZSt16__ostream_insertIcSt11char_traitsIcEERSt13basic_ostreamIT_T0_ES6_PKS3_l(ptr noundef nonnull align 8 dereferenceable(8) %14, ptr noundef %15, i64 noundef %17)
  br label %19

19:                                               ; preds = %13, %7
  %20 = load ptr, ptr %3, align 8, !tbaa !75
  ret ptr %20
}

; Function Attrs: mustprogress uwtable
define noundef nonnull align 8 dereferenceable(8) ptr @_ZN19OpenColorIO_v2_5devlsERSoRKNS_11GradingToneE(ptr noundef nonnull align 8 dereferenceable(8) %0, ptr noundef nonnull align 8 dereferenceable(248) %1) #0 {
  %3 = alloca ptr, align 8
  %4 = alloca ptr, align 8
  store ptr %0, ptr %3, align 8, !tbaa !75
  store ptr %1, ptr %4, align 8, !tbaa !62
  %5 = load ptr, ptr %3, align 8, !tbaa !75
  %6 = call noundef nonnull align 8 dereferenceable(8) ptr @_ZStlsISt11char_traitsIcEERSt13basic_ostreamIcT_ES5_PKc(ptr noundef nonnull align 8 dereferenceable(8) %5, ptr noundef @.str.13)
  %7 = load ptr, ptr %4, align 8, !tbaa !62
  %8 = getelementptr inbounds nuw %"struct.OpenColorIO_v2_5dev::GradingTone", ptr %7, i32 0, i32 0
  %9 = call noundef nonnull align 8 dereferenceable(8) ptr @_ZN19OpenColorIO_v2_5devlsERSoRKNS_13GradingRGBMSWE(ptr noundef nonnull align 8 dereferenceable(8) %6, ptr noundef nonnull align 8 dereferenceable(48) %8)
  %10 = load ptr, ptr %3, align 8, !tbaa !75
  %11 = call noundef nonnull align 8 dereferenceable(8) ptr @_ZStlsISt11char_traitsIcEERSt13basic_ostreamIcT_ES5_PKc(ptr noundef nonnull align 8 dereferenceable(8) %10, ptr noundef @.str.14)
  %12 = load ptr, ptr %4, align 8, !tbaa !62
  %13 = getelementptr inbounds nuw %"struct.OpenColorIO_v2_5dev::GradingTone", ptr %12, i32 0, i32 1
  %14 = call noundef nonnull align 8 dereferenceable(8) ptr @_ZN19OpenColorIO_v2_5devlsERSoRKNS_13GradingRGBMSWE(ptr noundef nonnull align 8 dereferenceable(8) %11, ptr noundef nonnull align 8 dereferenceable(48) %13)
  %15 = load ptr, ptr %3, align 8, !tbaa !75
  %16 = call noundef nonnull align 8 dereferenceable(8) ptr @_ZStlsISt11char_traitsIcEERSt13basic_ostreamIcT_ES5_PKc(ptr noundef nonnull align 8 dereferenceable(8) %15, ptr noundef @.str.15)
  %17 = load ptr, ptr %4, align 8, !tbaa !62
  %18 = getelementptr inbounds nuw %"struct.OpenColorIO_v2_5dev::GradingTone", ptr %17, i32 0, i32 2
  %19 = call noundef nonnull align 8 dereferenceable(8) ptr @_ZN19OpenColorIO_v2_5devlsERSoRKNS_13GradingRGBMSWE(ptr noundef nonnull align 8 dereferenceable(8) %16, ptr noundef nonnull align 8 dereferenceable(48) %18)
  %20 = load ptr, ptr %3, align 8, !tbaa !75
  %21 = call noundef nonnull align 8 dereferenceable(8) ptr @_ZStlsISt11char_traitsIcEERSt13basic_ostreamIcT_ES5_PKc(ptr noundef nonnull align 8 dereferenceable(8) %20, ptr noundef @.str.16)
  %22 = load ptr, ptr %4, align 8, !tbaa !62
  %23 = getelementptr inbounds nuw %"struct.OpenColorIO_v2_5dev::GradingTone", ptr %22, i32 0, i32 3
  %24 = call noundef nonnull align 8 dereferenceable(8) ptr @_ZN19OpenColorIO_v2_5devlsERSoRKNS_13GradingRGBMSWE(ptr noundef nonnull align 8 dereferenceable(8) %21, ptr noundef nonnull align 8 dereferenceable(48) %23)
  %25 = load ptr, ptr %3, align 8, !tbaa !75
  %26 = call noundef nonnull align 8 dereferenceable(8) ptr @_ZStlsISt11char_traitsIcEERSt13basic_ostreamIcT_ES5_PKc(ptr noundef nonnull align 8 dereferenceable(8) %25, ptr noundef @.str.17)
  %27 = load ptr, ptr %4, align 8, !tbaa !62
  %28 = getelementptr inbounds nuw %"struct.OpenColorIO_v2_5dev::GradingTone", ptr %27, i32 0, i32 4
  %29 = call noundef nonnull align 8 dereferenceable(8) ptr @_ZN19OpenColorIO_v2_5devlsERSoRKNS_13GradingRGBMSWE(ptr noundef nonnull align 8 dereferenceable(8) %26, ptr noundef nonnull align 8 dereferenceable(48) %28)
  %30 = load ptr, ptr %3, align 8, !tbaa !75
  %31 = call noundef nonnull align 8 dereferenceable(8) ptr @_ZStlsISt11char_traitsIcEERSt13basic_ostreamIcT_ES5_PKc(ptr noundef nonnull align 8 dereferenceable(8) %30, ptr noundef @.str.18)
  %32 = load ptr, ptr %4, align 8, !tbaa !62
  %33 = getelementptr inbounds nuw %"struct.OpenColorIO_v2_5dev::GradingTone", ptr %32, i32 0, i32 5
  %34 = load double, ptr %33, align 8, !tbaa !77
  %35 = call noundef nonnull align 8 dereferenceable(8) ptr @_ZNSolsEd(ptr noundef nonnull align 8 dereferenceable(8) %31, double noundef %34)
  %36 = load ptr, ptr %3, align 8, !tbaa !75
  %37 = call noundef nonnull align 8 dereferenceable(8) ptr @_ZStlsISt11char_traitsIcEERSt13basic_ostreamIcT_ES5_PKc(ptr noundef nonnull align 8 dereferenceable(8) %36, ptr noundef @.str.6)
  %38 = load ptr, ptr %3, align 8, !tbaa !75
  ret ptr %38
}