; Function Attrs: mustprogress uwtable
define noundef nonnull align 8 dereferenceable(8) ptr @_ZN19OpenColorIO_v2_5devlsERSoRKNS_11GradingToneE(ptr noundef nonnull returned align 8 dereferenceable(8) %0, ptr noundef nonnull readonly align 8 captures(none) dereferenceable(248) %1) local_unnamed_addr #0 {
  %3 = tail call noundef nonnull align 8 dereferenceable(8) ptr @_ZSt16__ostream_insertIcSt11char_traitsIcEERSt13basic_ostreamIT_T0_ES6_PKS3_l(ptr noundef nonnull align 8 dereferenceable(8) %0, ptr noundef nonnull @.str.13, i64 noundef 8)
  %4 = tail call noundef nonnull align 8 dereferenceable(8) ptr @_ZN19OpenColorIO_v2_5devlsERSoRKNS_13GradingRGBMSWE(ptr noundef nonnull align 8 dereferenceable(8) %0, ptr noundef nonnull align 8 dereferenceable(48) %1)
  %5 = tail call noundef nonnull align 8 dereferenceable(8) ptr @_ZSt16__ostream_insertIcSt11char_traitsIcEERSt13basic_ostreamIT_T0_ES6_PKS3_l(ptr noundef nonnull align 8 dereferenceable(8) %0, ptr noundef nonnull @.str.14, i64 noundef 9)
  %6 = getelementptr inbounds nuw i8, ptr %1, i64 48
  %7 = tail call noundef nonnull align 8 dereferenceable(8) ptr @_ZN19OpenColorIO_v2_5devlsERSoRKNS_13GradingRGBMSWE(ptr noundef nonnull align 8 dereferenceable(8) %0, ptr noundef nonnull align 8 dereferenceable(48) %6)
  %8 = tail call noundef nonnull align 8 dereferenceable(8) ptr @_ZSt16__ostream_insertIcSt11char_traitsIcEERSt13basic_ostreamIT_T0_ES6_PKS3_l(ptr noundef nonnull align 8 dereferenceable(8) %0, ptr noundef nonnull @.str.15, i64 noundef 10)
  %9 = getelementptr inbounds nuw i8, ptr %1, i64 96
  %10 = tail call noundef nonnull align 8 dereferenceable(8) ptr @_ZN19OpenColorIO_v2_5devlsERSoRKNS_13GradingRGBMSWE(ptr noundef nonnull align 8 dereferenceable(8) %0, ptr noundef nonnull align 8 dereferenceable(48) %9)
  %11 = tail call noundef nonnull align 8 dereferenceable(8) ptr @_ZSt16__ostream_insertIcSt11char_traitsIcEERSt13basic_ostreamIT_T0_ES6_PKS3_l(ptr noundef nonnull align 8 dereferenceable(8) %0, ptr noundef nonnull @.str.16, i64 noundef 12)
  %12 = getelementptr inbounds nuw i8, ptr %1, i64 144
  %13 = tail call noundef nonnull align 8 dereferenceable(8) ptr @_ZN19OpenColorIO_v2_5devlsERSoRKNS_13GradingRGBMSWE(ptr noundef nonnull align 8 dereferenceable(8) %0, ptr noundef nonnull align 8 dereferenceable(48) %12)
  %14 = tail call noundef nonnull align 8 dereferenceable(8) ptr @_ZSt16__ostream_insertIcSt11char_traitsIcEERSt13basic_ostreamIT_T0_ES6_PKS3_l(ptr noundef nonnull align 8 dereferenceable(8) %0, ptr noundef nonnull @.str.17, i64 noundef 8)
  %15 = getelementptr inbounds nuw i8, ptr %1, i64 192
  %16 = tail call noundef nonnull align 8 dereferenceable(8) ptr @_ZN19OpenColorIO_v2_5devlsERSoRKNS_13GradingRGBMSWE(ptr noundef nonnull align 8 dereferenceable(8) %0, ptr noundef nonnull align 8 dereferenceable(48) %15)
  %17 = tail call noundef nonnull align 8 dereferenceable(8) ptr @_ZSt16__ostream_insertIcSt11char_traitsIcEERSt13basic_ostreamIT_T0_ES6_PKS3_l(ptr noundef nonnull align 8 dereferenceable(8) %0, ptr noundef nonnull @.str.18, i64 noundef 12)
  %18 = getelementptr inbounds nuw i8, ptr %1, i64 240
  %19 = load double, ptr %18, align 8, !tbaa !79
  %20 = tail call noundef nonnull align 8 dereferenceable(8) ptr @_ZNSo9_M_insertIdEERSoT_(ptr noundef nonnull align 8 dereferenceable(8) %0, double noundef %19)
  %21 = tail call noundef nonnull align 8 dereferenceable(8) ptr @_ZSt16__ostream_insertIcSt11char_traitsIcEERSt13basic_ostreamIT_T0_ES6_PKS3_l(ptr noundef nonnull align 8 dereferenceable(8) %0, ptr noundef nonnull @.str.6, i64 noundef 1)
  ret ptr %0
}